; Function Attrs: nounwind uwtable
define ptr @l_Lean_resolveGlobalConst___rarg(ptr noundef %0, ptr noundef %1, ptr noundef %2, ptr noundef %3, ptr noundef %4) #1 {
  %6 = ptrtoint ptr %3 to i64
  %7 = and i64 %6, 1
  %.not = icmp eq i64 %7, 0
  br i1 %.not, label %8, label %lean_inc.exit15

8:                                                ; preds = %5
  %.val.i = load i32, ptr %3, align 4, !tbaa !4
  %9 = icmp sgt i32 %.val.i, 0
  br i1 %9, label %10, label %12, !prof !11

10:                                               ; preds = %8
  %11 = add nuw i32 %.val.i, 1
  store i32 %11, ptr %3, align 4, !tbaa !4
  br label %lean_inc.exit15

12:                                               ; preds = %8
  %.not.i = icmp eq i32 %.val.i, 0
  br i1 %.not.i, label %lean_inc.exit15, label %13

13:                                               ; preds = %12
  tail call void @lean_inc_ref_cold(ptr noundef nonnull %3) #6
  br label %lean_inc.exit15

lean_inc.exit15:                                  ; preds = %13, %12, %10, %5
  %14 = ptrtoint ptr %0 to i64
  %15 = and i64 %14, 1
  %.not19 = icmp eq i64 %15, 0
  br i1 %.not19, label %16, label %lean_inc.exit

16:                                               ; preds = %lean_inc.exit15
  %.val.i16 = load i32, ptr %0, align 4, !tbaa !4
  %17 = icmp sgt i32 %.val.i16, 0
  br i1 %17, label %18, label %20, !prof !11

18:                                               ; preds = %16
  %19 = add nuw i32 %.val.i16, 1
  store i32 %19, ptr %0, align 4, !tbaa !4
  br label %lean_inc.exit

20:                                               ; preds = %16
  %.not.i17 = icmp eq i32 %.val.i16, 0
  br i1 %.not.i17, label %lean_inc.exit, label %21

21:                                               ; preds = %20
  tail call void @lean_inc_ref_cold(ptr noundef nonnull %0) #6
  br label %lean_inc.exit

lean_inc.exit:                                    ; preds = %21, %20, %18, %lean_inc.exit15
  tail call void @lean_inc_heartbeat() #6
  %22 = tail call noalias ptr @mi_malloc_small(i64 noundef 56) #6
  %23 = icmp eq ptr %22, null
  br i1 %23, label %24, label %lean_alloc_closure.exit

24:                                               ; preds = %lean_inc.exit
  tail call void @lean_internal_panic_out_of_memory() #7
  unreachable

lean_alloc_closure.exit:                          ; preds = %lean_inc.exit
  %25 = getelementptr inbounds nuw i8, ptr %22, i64 4
  store i32 1, ptr %22, align 4, !tbaa !4
  store i32 -184549320, ptr %25, align 4
  %26 = getelementptr inbounds nuw i8, ptr %22, i64 8
  store ptr @l___private_Lean_ResolveName_0__Lean_resolveGlobalConstCore___rarg, ptr %26, align 8, !tbaa !9
  %27 = getelementptr inbounds nuw i8, ptr %22, i64 16
  store i16 5, ptr %27, align 8, !tbaa !14
  %28 = getelementptr inbounds nuw i8, ptr %22, i64 18
  store i16 4, ptr %28, align 2, !tbaa !14
  %29 = getelementptr inbounds nuw i8, ptr %22, i64 24
  store ptr %0, ptr %29, align 8, !tbaa !9
  %30 = getelementptr inbounds nuw i8, ptr %22, i64 32
  store ptr %1, ptr %30, align 8, !tbaa !9
  %31 = getelementptr inbounds nuw i8, ptr %22, i64 40
  store ptr %2, ptr %31, align 8, !tbaa !9
  %32 = getelementptr inbounds nuw i8, ptr %22, i64 48
  store ptr %3, ptr %32, align 8, !tbaa !9
  %33 = tail call ptr @l_Lean_preprocessSyntaxAndResolve___at_Lean_resolveGlobalConst___spec__1___rarg(ptr noundef %0, ptr noundef %3, ptr noundef %4, ptr noundef nonnull %22)
  ret ptr %33
}